target datalayout = "e-m:e-p270:32:32-p271:32:32-p272:64:64-i64:64-i128:128-f80:128-n8:16:32:64-S128"
target triple = "x86_64-pc-linux-gnu"

%struct.Vec_Ptr_t_ = type { i32, i32, ptr }
%struct.Vec_Int_t_ = type { i32, i32, ptr }
%struct.Abc_Ntk_t_ = type { i32, i32, ptr, ptr, ptr, ptr, ptr, ptr, ptr, ptr, ptr, ptr, ptr, [11 x i32], i32, i32, i32, i32, ptr, i32, ptr, ptr, i32, i32, i32, double, i32, %struct.Vec_Int_t_, ptr, ptr, ptr, ptr, ptr, float, i32, ptr, ptr, ptr, ptr, ptr, ptr, ptr, ptr, ptr, ptr, ptr, ptr, ptr, ptr, ptr, ptr, ptr, ptr, ptr, ptr, ptr }
%struct.Abc_Obj_t_ = type { ptr, ptr, i32, i32, %struct.Vec_Int_t_, %struct.Vec_Int_t_, %union.anon, %union.anon.0 }
%union.anon = type { ptr }
%union.anon.0 = type { ptr }

; Function Attrs: nounwind uwtable
define internal ptr @Vec_PtrEntry(ptr noundef %0, i32 noundef %1) #0 {
  %3 = alloca ptr, align 8
  %4 = alloca i32, align 4
  store ptr %0, ptr %3, align 8
  store i32 %1, ptr %4, align 4
  %5 = load ptr, ptr %3, align 8
  %6 = getelementptr inbounds %struct.Vec_Ptr_t_, ptr %5, i32 0, i32 2
  %7 = load ptr, ptr %6, align 8
  %8 = load i32, ptr %4, align 4
  %9 = sext i32 %8 to i64
  %10 = getelementptr inbounds ptr, ptr %7, i64 %9
  %11 = load ptr, ptr %10, align 8
  ret ptr %11
}

; Function Attrs: nounwind uwtable
define internal void @Vec_IntWriteEntry(ptr noundef %0, i32 noundef %1, i32 noundef %2) #0 {
  %4 = alloca ptr, align 8
  %5 = alloca i32, align 4
  %6 = alloca i32, align 4
  store ptr %0, ptr %4, align 8
  store i32 %1, ptr %5, align 4
  store i32 %2, ptr %6, align 4
  %7 = load i32, ptr %6, align 4
  %8 = load ptr, ptr %4, align 8
  %9 = getelementptr inbounds %struct.Vec_Int_t_, ptr %8, i32 0, i32 2
  %10 = load ptr, ptr %9, align 8
  %11 = load i32, ptr %5, align 4
  %12 = sext i32 %11 to i64
  %13 = getelementptr inbounds i32, ptr %10, i64 %12
  store i32 %7, ptr %13, align 4
  ret void
}

; Function Attrs: nounwind uwtable
define internal i32 @Abc_ObjId(ptr noundef %0) #0 {
  %2 = alloca ptr, align 8
  store ptr %0, ptr %2, align 8
  %3 = load ptr, ptr %2, align 8
  %4 = getelementptr inbounds %struct.Abc_Obj_t_, ptr %3, i32 0, i32 2
  %5 = load i32, ptr %4, align 8
  ret i32 %5
}

; Function Attrs: nounwind uwtable
define internal i32 @Abc_LitNot(i32 noundef %0) #0 {
  %2 = alloca i32, align 4
  store i32 %0, ptr %2, align 4
  %3 = load i32, ptr %2, align 4
  %4 = xor i32 %3, 1
  ret i32 %4
}

; Function Attrs: nounwind uwtable
define internal ptr @Abc_NtkObj(ptr noundef %0, i32 noundef %1) #0 {
  %3 = alloca ptr, align 8
  %4 = alloca i32, align 4
  store ptr %0, ptr %3, align 8
  store i32 %1, ptr %4, align 4
  %5 = load ptr, ptr %3, align 8
  %6 = getelementptr inbounds %struct.Abc_Ntk_t_, ptr %5, i32 0, i32 5
  %7 = load ptr, ptr %6, align 8
  %8 = load i32, ptr %4, align 4
  %9 = call ptr @Vec_PtrEntry(ptr noundef %7, i32 noundef %8)
  ret ptr %9
}

; Function Attrs: nounwind uwtable
define internal i32 @Vec_IntEntry(ptr noundef %0, i32 noundef %1) #0 {
  %3 = alloca ptr, align 8
  %4 = alloca i32, align 4
  store ptr %0, ptr %3, align 8
  store i32 %1, ptr %4, align 4
  %5 = load ptr, ptr %3, align 8
  %6 = getelementptr inbounds %struct.Vec_Int_t_, ptr %5, i32 0, i32 2
  %7 = load ptr, ptr %6, align 8
  %8 = load i32, ptr %4, align 4
  %9 = sext i32 %8 to i64
  %10 = getelementptr inbounds i32, ptr %7, i64 %9
  %11 = load i32, ptr %10, align 4
  ret i32 %11
}

; Function Attrs: nounwind uwtable
define ptr @Mpm_ManGetAbcNode(ptr noundef %0, ptr noundef %1, i32 noundef %2) #0 {
  %4 = alloca ptr, align 8
  %5 = alloca ptr, align 8
  %6 = alloca ptr, align 8
  %7 = alloca i32, align 4
  %8 = alloca ptr, align 8
  %9 = alloca i32, align 4
  store ptr %0, ptr %5, align 8
  store ptr %1, ptr %6, align 8
  store i32 %2, ptr %7, align 4
  %10 = load ptr, ptr %6, align 8
  %11 = load i32, ptr %7, align 4
  %12 = call i32 @Vec_IntEntry(ptr noundef %10, i32 noundef %11)
  store i32 %12, ptr %9, align 4
  %13 = load i32, ptr %9, align 4
  %14 = icmp sge i32 %13, 0
  br i1 %14, label %15, label %19

15:                                               ; preds = %3
  %16 = load ptr, ptr %5, align 8
  %17 = load i32, ptr %9, align 4
  %18 = call ptr @Abc_NtkObj(ptr noundef %16, i32 noundef %17)
  store ptr %18, ptr %4, align 8
  br label %34

19:                                               ; preds = %3
  %20 = load ptr, ptr %6, align 8
  %21 = load i32, ptr %7, align 4
  %22 = call i32 @Abc_LitNot(i32 noundef %21)
  %23 = call i32 @Vec_IntEntry(ptr noundef %20, i32 noundef %22)
  store i32 %23, ptr %9, align 4
  %24 = load ptr, ptr %5, align 8
  %25 = load ptr, ptr %5, align 8
  %26 = load i32, ptr %9, align 4
  %27 = call ptr @Abc_NtkObj(ptr noundef %25, i32 noundef %26)
  %28 = call ptr @Abc_NtkCreateNodeInv(ptr noundef %24, ptr noundef %27)
  store ptr %28, ptr %8, align 8
  %29 = load ptr, ptr %6, align 8
  %30 = load i32, ptr %7, align 4
  %31 = load ptr, ptr %8, align 8
  %32 = call i32 @Abc_ObjId(ptr noundef %31)
  call void @Vec_IntWriteEntry(ptr noundef %29, i32 noundef %30, i32 noundef %32)
  %33 = load ptr, ptr %8, align 8
  store ptr %33, ptr %4, align 8
  br label %34

34:                                               ; preds = %19, %15
  %35 = load ptr, ptr %4, align 8
  ret ptr %35
}