; Function Attrs: nounwind uwtable
define ptr @Mpm_ManGetAbcNode(ptr noundef %0, ptr noundef readonly captures(none) %1, i32 noundef %2) local_unnamed_addr #0 {
  %4 = getelementptr i8, ptr %1, i64 8
  %.val15 = load ptr, ptr %4, align 8
  %5 = sext i32 %2 to i64
  %6 = getelementptr inbounds i32, ptr %.val15, i64 %5
  %7 = load i32, ptr %6, align 4
  %8 = icmp sgt i32 %7, -1
  br i1 %8, label %9, label %15

9:                                                ; preds = %3
  %10 = getelementptr i8, ptr %0, i64 32
  %.val16 = load ptr, ptr %10, align 8
  %11 = getelementptr i8, ptr %.val16, i64 8
  %.val16.val = load ptr, ptr %11, align 8
  %12 = zext nneg i32 %7 to i64
  %13 = getelementptr inbounds nuw ptr, ptr %.val16.val, i64 %12
  %14 = load ptr, ptr %13, align 8
  br label %28

15:                                               ; preds = %3
  %16 = xor i32 %2, 1
  %17 = sext i32 %16 to i64
  %18 = getelementptr inbounds i32, ptr %.val15, i64 %17
  %19 = load i32, ptr %18, align 4
  %20 = getelementptr i8, ptr %0, i64 32
  %.val17 = load ptr, ptr %20, align 8
  %21 = getelementptr i8, ptr %.val17, i64 8
  %.val17.val = load ptr, ptr %21, align 8
  %22 = sext i32 %19 to i64
  %23 = getelementptr inbounds ptr, ptr %.val17.val, i64 %22
  %24 = load ptr, ptr %23, align 8
  %25 = tail call ptr @Abc_NtkCreateNodeInv(ptr noundef %0, ptr noundef %24) #11
  %26 = getelementptr i8, ptr %25, i64 16
  %.val18 = load i32, ptr %26, align 8
  %.val19 = load ptr, ptr %4, align 8
  %27 = getelementptr inbounds i32, ptr %.val19, i64 %5
  store i32 %.val18, ptr %27, align 4
  br label %28

28:                                               ; preds = %15, %9
  %.0 = phi ptr [ %14, %9 ], [ %25, %15 ]
  ret ptr %.0
}